; Function Attrs: nounwind uwtable
define internal i32 @tls_dump_puts(ptr noundef %0, ptr noundef %1) #0 {
  %3 = tail call i64 @strlen(ptr noundef nonnull dereferenceable(1) %1) #15
  %4 = trunc i64 %3 to i32
  %5 = tail call ptr @BIO_next(ptr noundef %0) #14
  %6 = tail call i32 @BIO_write(ptr noundef %5, ptr noundef nonnull %1, i32 noundef %4) #14
  %7 = tail call ptr @BIO_next(ptr noundef %0) #14
  %8 = tail call i32 @BIO_test_flags(ptr noundef %7, i32 noundef 15) #14
  tail call void @BIO_clear_flags(ptr noundef %0, i32 noundef 15) #14
  tail call void @BIO_set_flags(ptr noundef %0, i32 noundef %8) #14
  ret i32 %6
}